target datalayout = "e-m:e-p270:32:32-p271:32:32-p272:64:64-i64:64-i128:128-f80:128-n8:16:32:64-S128"
target triple = "x86_64-pc-linux-gnu"

%class.XStatSubPhase = type { %class.XStatPhase }
%class.XStatPhase = type { ptr, %class.XStatSampler }
%class.XStatSampler = type { %class.XStatIterableValue, ptr }
%class.XStatIterableValue = type { %class.XStatValue, ptr }
%class.XStatValue = type { ptr, ptr, i32, i32 }
%class.ValueObjBlock = type { %"class.OopStorage::ParState", %class.ValueObjBlock.0 }
%"class.OopStorage::ParState" = type { %"class.OopStorage::BasicParState" }
%"class.OopStorage::BasicParState" = type { ptr, ptr, i64, i64, i32, i8, i64 }
%class.ValueObjBlock.0 = type { %"class.OopStorage::ParState", %class.ValueObjBlock.1 }
%class.ValueObjBlock.1 = type { %"class.OopStorage::ParState", %class.ValueObjBlock.2 }
%class.ValueObjBlock.2 = type { %"class.OopStorage::ParState", %class.ValueObjBlock.3 }
%class.ValueObjBlock.3 = type <{ %"class.OopStorage::ParState", %class.ValueObjBlock.4, [7 x i8] }>
%class.ValueObjBlock.4 = type { i8 }
%class.XStatTimer = type { i8, ptr, %class.TimeInstant }
%class.TimeInstant = type { %class.CompositeCounterRepresentation }
%class.CompositeCounterRepresentation = type { %class.Representation }
%class.Representation = type { %class.PairRep }
%class.PairRep = type { i64, i64 }
%class.XWeakOopStorageSetIterator = type { %class.OopStorageSetWeakParState }
%class.OopStorageSetWeakParState = type { %class.OopStorageSetParState.12 }
%class.OopStorageSetParState.12 = type { %struct.ValueObjArray.13 }
%struct.ValueObjArray.13 = type { [10 x ptr], %class.ValueObjBlock.14 }
%class.ValueObjBlock.14 = type { %"class.OopStorage::ParState", %class.ValueObjBlock.15 }
%class.ValueObjBlock.15 = type { %"class.OopStorage::ParState", %class.ValueObjBlock.16 }
%class.ValueObjBlock.16 = type { %"class.OopStorage::ParState", %class.ValueObjBlock.17 }
%class.ValueObjBlock.17 = type { %"class.OopStorage::ParState", %class.ValueObjBlock.18 }
%class.ValueObjBlock.18 = type { %"class.OopStorage::ParState", %class.ValueObjBlock }

@_ZL41XSubPhaseConcurrentWeakRootsOopStorageSet = internal global %class.XStatSubPhase zeroinitializer, align 8
@_ZN17XStatTimerDisable7_activeE = external thread_local global i32, align 4

; Function Attrs: mustprogress nounwind uwtable
define linkonce_odr hidden void @_ZN7PairRepIllEC2Ev(ptr noundef nonnull align 8 dereferenceable(16) %0) unnamed_addr #1 comdat align 2 {
  %2 = alloca ptr, align 8
  store ptr %0, ptr %2, align 8
  %3 = load ptr, ptr %2, align 8
  %4 = getelementptr inbounds %class.PairRep, ptr %3, i32 0, i32 0
  store i64 0, ptr %4, align 8
  %5 = getelementptr inbounds %class.PairRep, ptr %3, i32 0, i32 1
  store i64 0, ptr %5, align 8
  ret void
}

; Function Attrs: mustprogress nounwind uwtable
define linkonce_odr hidden void @_ZN14RepresentationI29CompositeElapsedCounterSourceEC2Ev(ptr noundef nonnull align 8 dereferenceable(16) %0) unnamed_addr #1 comdat align 2 {
  %2 = alloca ptr, align 8
  store ptr %0, ptr %2, align 8
  %3 = load ptr, ptr %2, align 8
  %4 = getelementptr inbounds %class.Representation, ptr %3, i32 0, i32 0
  call void @_ZN7PairRepIllEC2Ev(ptr noundef nonnull align 8 dereferenceable(16) %4)
  ret void
}

; Function Attrs: mustprogress nounwind uwtable
define linkonce_odr hidden void @_ZN30CompositeCounterRepresentationI29CompositeElapsedCounterSourceEC2Ev(ptr noundef nonnull align 8 dereferenceable(16) %0) unnamed_addr #1 comdat align 2 {
  %2 = alloca ptr, align 8
  store ptr %0, ptr %2, align 8
  %3 = load ptr, ptr %2, align 8
  call void @_ZN14RepresentationI29CompositeElapsedCounterSourceEC2Ev(ptr noundef nonnull align 8 dereferenceable(16) %3)
  ret void
}

; Function Attrs: mustprogress nounwind uwtable
define linkonce_odr hidden void @_ZN11TimeInstantI30CompositeCounterRepresentation29CompositeElapsedCounterSourceE5stampEv(ptr noundef nonnull align 8 dereferenceable(16) %0) #1 comdat align 2 {
  %2 = alloca ptr, align 8
  %3 = alloca %class.PairRep, align 8
  store ptr %0, ptr %2, align 8
  %4 = load ptr, ptr %2, align 8
  %5 = call { i64, i64 } @_ZN29CompositeElapsedCounterSource3nowEv()
  %6 = getelementptr inbounds { i64, i64 }, ptr %3, i32 0, i32 0
  %7 = extractvalue { i64, i64 } %5, 0
  store i64 %7, ptr %6, align 8
  %8 = getelementptr inbounds { i64, i64 }, ptr %3, i32 0, i32 1
  %9 = extractvalue { i64, i64 } %5, 1
  store i64 %9, ptr %8, align 8
  %10 = getelementptr inbounds %class.Representation, ptr %4, i32 0, i32 0
  call void @llvm.memcpy.p0.p0.i64(ptr align 8 %10, ptr align 8 %3, i64 16, i1 false)
  ret void
}

; Function Attrs: mustprogress nounwind uwtable
define linkonce_odr hidden void @_ZN11TimeInstantI30CompositeCounterRepresentation29CompositeElapsedCounterSourceEC2Ev(ptr noundef nonnull align 8 dereferenceable(16) %0) unnamed_addr #1 comdat align 2 {
  %2 = alloca ptr, align 8
  store ptr %0, ptr %2, align 8
  %3 = load ptr, ptr %2, align 8
  call void @_ZN30CompositeCounterRepresentationI29CompositeElapsedCounterSourceEC2Ev(ptr noundef nonnull align 8 dereferenceable(16) %3)
  ret void
}

; Function Attrs: mustprogress nounwind uwtable
define linkonce_odr hidden { i64, i64 } @_ZN11TimeInstantI30CompositeCounterRepresentation29CompositeElapsedCounterSourceE3nowEv() #1 comdat align 2 {
  %1 = alloca %class.TimeInstant, align 8
  call void @_ZN11TimeInstantI30CompositeCounterRepresentation29CompositeElapsedCounterSourceEC2Ev(ptr noundef nonnull align 8 dereferenceable(16) %1)
  call void @_ZN11TimeInstantI30CompositeCounterRepresentation29CompositeElapsedCounterSourceE5stampEv(ptr noundef nonnull align 8 dereferenceable(16) %1)
  %2 = getelementptr inbounds %class.TimeInstant, ptr %1, i32 0, i32 0
  %3 = getelementptr inbounds %class.CompositeCounterRepresentation, ptr %2, i32 0, i32 0
  %4 = getelementptr inbounds %class.Representation, ptr %3, i32 0, i32 0
  %5 = load { i64, i64 }, ptr %4, align 8
  ret { i64, i64 } %5
}

; Function Attrs: mustprogress nounwind uwtable
define linkonce_odr hidden noundef zeroext i1 @_ZN17XStatTimerDisable9is_activeEv() #1 comdat align 2 {
  %1 = call align 4 ptr @llvm.threadlocal.address.p0(ptr align 4 @_ZN17XStatTimerDisable7_activeE)
  %2 = load i32, ptr %1, align 4
  %3 = icmp ugt i32 %2, 0
  ret i1 %3
}

; Function Attrs: mustprogress nounwind uwtable
define linkonce_odr hidden void @_ZN10XStatTimerD2Ev(ptr noundef nonnull align 8 dereferenceable(32) %0) unnamed_addr #1 comdat align 2 {
  %2 = alloca ptr, align 8
  %3 = alloca %class.TimeInstant, align 8
  store ptr %0, ptr %2, align 8
  %4 = load ptr, ptr %2, align 8
  %5 = getelementptr inbounds %class.XStatTimer, ptr %4, i32 0, i32 0
  %6 = load i8, ptr %5, align 8
  %7 = trunc i8 %6 to i1
  br i1 %7, label %8, label %23

8:                                                ; preds = %1
  %9 = call { i64, i64 } @_ZN11TimeInstantI30CompositeCounterRepresentation29CompositeElapsedCounterSourceE3nowEv()
  %10 = getelementptr inbounds %class.TimeInstant, ptr %3, i32 0, i32 0
  %11 = getelementptr inbounds %class.CompositeCounterRepresentation, ptr %10, i32 0, i32 0
  %12 = getelementptr inbounds %class.Representation, ptr %11, i32 0, i32 0
  %13 = getelementptr inbounds { i64, i64 }, ptr %12, i32 0, i32 0
  %14 = extractvalue { i64, i64 } %9, 0
  store i64 %14, ptr %13, align 8
  %15 = getelementptr inbounds { i64, i64 }, ptr %12, i32 0, i32 1
  %16 = extractvalue { i64, i64 } %9, 1
  store i64 %16, ptr %15, align 8
  %17 = getelementptr inbounds %class.XStatTimer, ptr %4, i32 0, i32 1
  %18 = load ptr, ptr %17, align 8
  %19 = getelementptr inbounds %class.XStatTimer, ptr %4, i32 0, i32 2
  %20 = load ptr, ptr %18, align 8
  %21 = getelementptr inbounds ptr, ptr %20, i64 1
  %22 = load ptr, ptr %21, align 8
  call void %22(ptr noundef nonnull align 8 dereferenceable(48) %18, ptr noundef nonnull align 8 dereferenceable(16) %19, ptr noundef nonnull align 8 dereferenceable(16) %3)
  br label %23

23:                                               ; preds = %8, %1
  ret void
}

; Function Attrs: mustprogress nounwind uwtable
define linkonce_odr hidden void @_ZN10XStatTimerC2ERK10XStatPhase(ptr noundef nonnull align 8 dereferenceable(32) %0, ptr noundef nonnull align 8 dereferenceable(48) %1) unnamed_addr #1 comdat align 2 {
  %3 = alloca ptr, align 8
  %4 = alloca ptr, align 8
  store ptr %0, ptr %3, align 8
  store ptr %1, ptr %4, align 8
  %5 = load ptr, ptr %3, align 8
  %6 = getelementptr inbounds %class.XStatTimer, ptr %5, i32 0, i32 0
  %7 = call noundef zeroext i1 @_ZN17XStatTimerDisable9is_activeEv()
  %8 = xor i1 %7, true
  %9 = zext i1 %8 to i8
  store i8 %9, ptr %6, align 8
  %10 = getelementptr inbounds %class.XStatTimer, ptr %5, i32 0, i32 1
  %11 = load ptr, ptr %4, align 8
  store ptr %11, ptr %10, align 8
  %12 = getelementptr inbounds %class.XStatTimer, ptr %5, i32 0, i32 2
  %13 = call { i64, i64 } @_ZN11TimeInstantI30CompositeCounterRepresentation29CompositeElapsedCounterSourceE3nowEv()
  %14 = getelementptr inbounds %class.TimeInstant, ptr %12, i32 0, i32 0
  %15 = getelementptr inbounds %class.CompositeCounterRepresentation, ptr %14, i32 0, i32 0
  %16 = getelementptr inbounds %class.Representation, ptr %15, i32 0, i32 0
  %17 = getelementptr inbounds { i64, i64 }, ptr %16, i32 0, i32 0
  %18 = extractvalue { i64, i64 } %13, 0
  store i64 %18, ptr %17, align 8
  %19 = getelementptr inbounds { i64, i64 }, ptr %16, i32 0, i32 1
  %20 = extractvalue { i64, i64 } %13, 1
  store i64 %20, ptr %19, align 8
  %21 = getelementptr inbounds %class.XStatTimer, ptr %5, i32 0, i32 0
  %22 = load i8, ptr %21, align 8
  %23 = trunc i8 %22 to i1
  br i1 %23, label %24, label %31

24:                                               ; preds = %2
  %25 = getelementptr inbounds %class.XStatTimer, ptr %5, i32 0, i32 1
  %26 = load ptr, ptr %25, align 8
  %27 = getelementptr inbounds %class.XStatTimer, ptr %5, i32 0, i32 2
  %28 = load ptr, ptr %26, align 8
  %29 = getelementptr inbounds ptr, ptr %28, i64 0
  %30 = load ptr, ptr %29, align 8
  call void %30(ptr noundef nonnull align 8 dereferenceable(48) %26, ptr noundef nonnull align 8 dereferenceable(16) %27)
  br label %31

31:                                               ; preds = %24, %2
  ret void
}

; Function Attrs: mustprogress nounwind uwtable
define hidden void @_ZN26XWeakOopStorageSetIterator5applyEP10OopClosure(ptr noundef nonnull align 8 dereferenceable(568) %0, ptr noundef %1) #1 align 2 {
  %3 = alloca ptr, align 8
  %4 = alloca ptr, align 8
  %5 = alloca %class.XStatTimer, align 8
  store ptr %0, ptr %3, align 8
  store ptr %1, ptr %4, align 8
  %6 = load ptr, ptr %3, align 8
  call void @_ZN10XStatTimerC2ERK10XStatPhase(ptr noundef nonnull align 8 dereferenceable(32) %5, ptr noundef nonnull align 8 dereferenceable(48) @_ZL41XSubPhaseConcurrentWeakRootsOopStorageSet)
  %7 = getelementptr inbounds %class.XWeakOopStorageSetIterator, ptr %6, i32 0, i32 0
  %8 = load ptr, ptr %4, align 8
  call void @_ZN25OopStorageSetWeakParStateILb1ELb0EE7oops_doI10OopClosureEEvPT_(ptr noundef nonnull align 8 dereferenceable(568) %7, ptr noundef %8)
  call void @_ZN10XStatTimerD2Ev(ptr noundef nonnull align 8 dereferenceable(32) %5) #7
  ret void
}