; Function Attrs: mustprogress nounwind uwtable
define hidden void @_ZN26XWeakOopStorageSetIterator5applyEP10OopClosure(ptr noundef nonnull align 8 dereferenceable(568) %0, ptr noundef %1) local_unnamed_addr #1 align 2 {
  %3 = alloca %class.TimeInstant, align 8
  %4 = alloca %class.XStatTimer, align 8
  %5 = tail call align 4 ptr @llvm.threadlocal.address.p0(ptr align 4 @_ZN17XStatTimerDisable7_activeE)
  %6 = load i32, ptr %5, align 4
  %.not.i = icmp eq i32 %6, 0
  %7 = zext i1 %.not.i to i8
  store i8 %7, ptr %4, align 8
  %8 = getelementptr inbounds i8, ptr %4, i64 8
  store ptr @_ZL41XSubPhaseConcurrentWeakRootsOopStorageSet, ptr %8, align 8
  %9 = getelementptr inbounds i8, ptr %4, i64 16
  %10 = tail call { i64, i64 } @_ZN29CompositeElapsedCounterSource3nowEv() #7
  %11 = extractvalue { i64, i64 } %10, 0
  store i64 %11, ptr %9, align 8
  %12 = getelementptr inbounds i8, ptr %4, i64 24
  %13 = extractvalue { i64, i64 } %10, 1
  store i64 %13, ptr %12, align 8
  br i1 %.not.i, label %14, label %_ZN10XStatTimerC2ERK10XStatPhase.exit

14:                                               ; preds = %2
  %15 = load ptr, ptr @_ZL41XSubPhaseConcurrentWeakRootsOopStorageSet, align 8
  %16 = load ptr, ptr %15, align 8
  call void %16(ptr noundef nonnull align 8 dereferenceable(48) @_ZL41XSubPhaseConcurrentWeakRootsOopStorageSet, ptr noundef nonnull align 8 dereferenceable(16) %9) #7
  br label %_ZN10XStatTimerC2ERK10XStatPhase.exit

_ZN10XStatTimerC2ERK10XStatPhase.exit:            ; preds = %2, %14
  call void @_ZN25OopStorageSetWeakParStateILb1ELb0EE7oops_doI10OopClosureEEvPT_(ptr noundef nonnull align 8 dereferenceable(568) %0, ptr noundef %1)
  call void @llvm.lifetime.start.p0(i64 16, ptr nonnull %3)
  %17 = load i8, ptr %4, align 8
  %18 = trunc i8 %17 to i1
  br i1 %18, label %19, label %_ZN10XStatTimerD2Ev.exit

19:                                               ; preds = %_ZN10XStatTimerC2ERK10XStatPhase.exit
  %20 = call { i64, i64 } @_ZN29CompositeElapsedCounterSource3nowEv() #7
  %21 = extractvalue { i64, i64 } %20, 0
  store i64 %21, ptr %3, align 8
  %22 = getelementptr inbounds i8, ptr %3, i64 8
  %23 = extractvalue { i64, i64 } %20, 1
  store i64 %23, ptr %22, align 8
  %24 = load ptr, ptr %8, align 8
  %25 = load ptr, ptr %24, align 8
  %26 = getelementptr inbounds i8, ptr %25, i64 8
  %27 = load ptr, ptr %26, align 8
  call void %27(ptr noundef nonnull align 8 dereferenceable(48) %24, ptr noundef nonnull align 8 dereferenceable(16) %9, ptr noundef nonnull align 8 dereferenceable(16) %3) #7
  br label %_ZN10XStatTimerD2Ev.exit

_ZN10XStatTimerD2Ev.exit:                         ; preds = %_ZN10XStatTimerC2ERK10XStatPhase.exit, %19
  call void @llvm.lifetime.end.p0(i64 16, ptr nonnull %3)
  ret void
}